target datalayout = "e-m:e-p270:32:32-p271:32:32-p272:64:64-i64:64-i128:128-f80:128-n8:16:32:64-S128"
target triple = "x86_64-unknown-linux-gnu"

%"class.ue2::(anonymous namespace)::NFABuilderImpl" = type <{ %"class.ue2::NFABuilder", ptr, ptr, %"class.std::unique_ptr.85", %"class.ue2::ExpressionInfo", %"class.std::vector.93", i32, [4 x i8] }>
%"class.ue2::NFABuilder" = type { ptr }
%"class.std::unique_ptr.85" = type { %"struct.std::__uniq_ptr_data.86" }
%"struct.std::__uniq_ptr_data.86" = type { %"class.std::__uniq_ptr_impl.87" }
%"class.std::__uniq_ptr_impl.87" = type { %"class.std::tuple.88" }
%"class.std::tuple.88" = type { %"struct.std::_Tuple_impl.89" }
%"struct.std::_Tuple_impl.89" = type { %"struct.std::_Head_base.92" }
%"struct.std::_Head_base.92" = type { ptr }
%"class.ue2::ExpressionInfo" = type <{ i32, i32, i8, i8, i8, i8, i32, i64, i64, i64, i32, i32, i8, [7 x i8] }>
%"class.std::vector.93" = type { %"struct.std::_Vector_base.94" }
%"struct.std::_Vector_base.94" = type { %"struct.std::_Vector_base<ue2::graph_detail::vertex_descriptor<ue2::ue2_graph<ue2::NGHolder, ue2::NFAGraphVertexProps, ue2::NFAGraphEdgeProps>>, std::allocator<ue2::graph_detail::vertex_descriptor<ue2::ue2_graph<ue2::NGHolder, ue2::NFAGraphVertexProps, ue2::NFAGraphEdgeProps>>>>::_Vector_impl" }
%"struct.std::_Vector_base<ue2::graph_detail::vertex_descriptor<ue2::ue2_graph<ue2::NGHolder, ue2::NFAGraphVertexProps, ue2::NFAGraphEdgeProps>>, std::allocator<ue2::graph_detail::vertex_descriptor<ue2::ue2_graph<ue2::NGHolder, ue2::NFAGraphVertexProps, ue2::NFAGraphEdgeProps>>>>::_Vector_impl" = type { %"struct.std::_Vector_base<ue2::graph_detail::vertex_descriptor<ue2::ue2_graph<ue2::NGHolder, ue2::NFAGraphVertexProps, ue2::NFAGraphEdgeProps>>, std::allocator<ue2::graph_detail::vertex_descriptor<ue2::ue2_graph<ue2::NGHolder, ue2::NFAGraphVertexProps, ue2::NFAGraphEdgeProps>>>>::_Vector_impl_data" }
%"struct.std::_Vector_base<ue2::graph_detail::vertex_descriptor<ue2::ue2_graph<ue2::NGHolder, ue2::NFAGraphVertexProps, ue2::NFAGraphEdgeProps>>, std::allocator<ue2::graph_detail::vertex_descriptor<ue2::ue2_graph<ue2::NGHolder, ue2::NFAGraphVertexProps, ue2::NFAGraphEdgeProps>>>>::_Vector_impl_data" = type { ptr, ptr, ptr }
%"struct.boost::intrusive::detail::size_holder" = type { i64 }
%"struct.boost::intrusive::detail::default_header_holder" = type { %"struct.boost::intrusive::list_node" }
%"struct.boost::intrusive::list_node" = type { ptr, ptr }
%"class.ue2::graph_detail::vertex_descriptor" = type { ptr, i64 }
%"struct.ue2::NFAGraphVertexProps" = type <{ %"class.ue2::CharReach", %"class.ue2::flat_set", i64, i32, [4 x i8] }>
%"class.ue2::CharReach" = type { %"class.ue2::bitfield" }
%"class.ue2::bitfield" = type { %"struct.std::array" }
%"struct.std::array" = type { [4 x i64] }
%"class.ue2::flat_set" = type { %"class.ue2::flat_detail::flat_base" }
%"class.ue2::flat_detail::flat_base" = type { %"class.std::tuple.98" }
%"class.std::tuple.98" = type { %"struct.std::_Tuple_impl.99" }
%"struct.std::_Tuple_impl.99" = type { %"struct.std::_Head_base.102" }
%"struct.std::_Head_base.102" = type { %"class.boost::container::small_vector" }
%"class.boost::container::small_vector" = type { %"class.boost::container::small_vector_base.base", [4 x i8] }
%"class.boost::container::small_vector_base.base" = type <{ %"class.boost::container::vector", %"union.boost::move_detail::aligned_struct_wrapper" }>
%"class.boost::container::vector" = type { %"struct.boost::container::vector_alloc_holder" }
%"struct.boost::container::vector_alloc_holder" = type { ptr, i64, i64 }
%"union.boost::move_detail::aligned_struct_wrapper" = type { %"struct.boost::move_detail::aligned_struct" }
%"struct.boost::move_detail::aligned_struct" = type { [4 x i8] }
%"struct.ue2::ue2_graph<ue2::NGHolder, ue2::NFAGraphVertexProps, ue2::NFAGraphEdgeProps>::vertex_node" = type { %"class.boost::intrusive::list_base_hook", %"struct.ue2::NFAGraphVertexProps", i64, %"class.boost::intrusive::list.109", %"class.boost::intrusive::list.113" }
%"class.boost::intrusive::list_base_hook" = type { %"class.boost::intrusive::generic_hook" }
%"class.boost::intrusive::generic_hook" = type { %"struct.boost::intrusive::node_holder" }
%"struct.boost::intrusive::node_holder" = type { %"struct.boost::intrusive::list_node" }
%"class.boost::intrusive::list.109" = type { %"class.boost::intrusive::list_impl.110" }
%"class.boost::intrusive::list_impl.110" = type { %"struct.boost::intrusive::list_impl<boost::intrusive::bhtraits<ue2::ue2_graph<ue2::NGHolder, ue2::NFAGraphVertexProps, ue2::NFAGraphEdgeProps>::edge_node, boost::intrusive::list_node_traits<void *>, boost::intrusive::normal_link, ue2::ue2_graph<ue2::NGHolder, ue2::NFAGraphVertexProps, ue2::NFAGraphEdgeProps>::in_edge_tag, 1>, unsigned long, true, void>::data_t" }
%"struct.boost::intrusive::list_impl<boost::intrusive::bhtraits<ue2::ue2_graph<ue2::NGHolder, ue2::NFAGraphVertexProps, ue2::NFAGraphEdgeProps>::edge_node, boost::intrusive::list_node_traits<void *>, boost::intrusive::normal_link, ue2::ue2_graph<ue2::NGHolder, ue2::NFAGraphVertexProps, ue2::NFAGraphEdgeProps>::in_edge_tag, 1>, unsigned long, true, void>::data_t" = type { %"struct.boost::intrusive::list_impl<boost::intrusive::bhtraits<ue2::ue2_graph<ue2::NGHolder, ue2::NFAGraphVertexProps, ue2::NFAGraphEdgeProps>::edge_node, boost::intrusive::list_node_traits<void *>, boost::intrusive::normal_link, ue2::ue2_graph<ue2::NGHolder, ue2::NFAGraphVertexProps, ue2::NFAGraphEdgeProps>::in_edge_tag, 1>, unsigned long, true, void>::root_plus_size" }
%"struct.boost::intrusive::list_impl<boost::intrusive::bhtraits<ue2::ue2_graph<ue2::NGHolder, ue2::NFAGraphVertexProps, ue2::NFAGraphEdgeProps>::edge_node, boost::intrusive::list_node_traits<void *>, boost::intrusive::normal_link, ue2::ue2_graph<ue2::NGHolder, ue2::NFAGraphVertexProps, ue2::NFAGraphEdgeProps>::in_edge_tag, 1>, unsigned long, true, void>::root_plus_size" = type { %"struct.boost::intrusive::detail::size_holder", %"struct.boost::intrusive::detail::default_header_holder" }
%"class.boost::intrusive::list.113" = type { %"class.boost::intrusive::list_impl.114" }
%"class.boost::intrusive::list_impl.114" = type { %"struct.boost::intrusive::list_impl<boost::intrusive::bhtraits<ue2::ue2_graph<ue2::NGHolder, ue2::NFAGraphVertexProps, ue2::NFAGraphEdgeProps>::edge_node, boost::intrusive::list_node_traits<void *>, boost::intrusive::safe_link, ue2::ue2_graph<ue2::NGHolder, ue2::NFAGraphVertexProps, ue2::NFAGraphEdgeProps>::out_edge_tag, 1>, unsigned long, true, void>::data_t" }
%"struct.boost::intrusive::list_impl<boost::intrusive::bhtraits<ue2::ue2_graph<ue2::NGHolder, ue2::NFAGraphVertexProps, ue2::NFAGraphEdgeProps>::edge_node, boost::intrusive::list_node_traits<void *>, boost::intrusive::safe_link, ue2::ue2_graph<ue2::NGHolder, ue2::NFAGraphVertexProps, ue2::NFAGraphEdgeProps>::out_edge_tag, 1>, unsigned long, true, void>::data_t" = type { %"struct.boost::intrusive::list_impl<boost::intrusive::bhtraits<ue2::ue2_graph<ue2::NGHolder, ue2::NFAGraphVertexProps, ue2::NFAGraphEdgeProps>::edge_node, boost::intrusive::list_node_traits<void *>, boost::intrusive::safe_link, ue2::ue2_graph<ue2::NGHolder, ue2::NFAGraphVertexProps, ue2::NFAGraphEdgeProps>::out_edge_tag, 1>, unsigned long, true, void>::root_plus_size" }
%"struct.boost::intrusive::list_impl<boost::intrusive::bhtraits<ue2::ue2_graph<ue2::NGHolder, ue2::NFAGraphVertexProps, ue2::NFAGraphEdgeProps>::edge_node, boost::intrusive::list_node_traits<void *>, boost::intrusive::safe_link, ue2::ue2_graph<ue2::NGHolder, ue2::NFAGraphVertexProps, ue2::NFAGraphEdgeProps>::out_edge_tag, 1>, unsigned long, true, void>::root_plus_size" = type { %"struct.boost::intrusive::detail::size_holder", %"struct.boost::intrusive::detail::default_header_holder" }

; Function Attrs: mustprogress nounwind uwtable
define linkonce_odr hidden noundef nonnull align 8 dereferenceable(8) ptr @_ZNSt10_Head_baseILm0EPN3ue28NGHolderELb0EE7_M_headERKS3_(ptr noundef nonnull align 8 dereferenceable(8) %__b) #1 comdat align 2 {
entry:
  %__b.addr = alloca ptr, align 8
  store ptr %__b, ptr %__b.addr, align 8
  %0 = load ptr, ptr %__b.addr, align 8
  %_M_head_impl = getelementptr inbounds %"struct.std::_Head_base.92", ptr %0, i32 0, i32 0
  ret ptr %_M_head_impl
}

; Function Attrs: mustprogress nounwind uwtable
define linkonce_odr hidden noundef nonnull align 8 dereferenceable(8) ptr @_ZNSt11_Tuple_implILm0EJPN3ue28NGHolderESt14default_deleteIS1_EEE7_M_headERKS5_(ptr noundef nonnull align 8 dereferenceable(8) %__t) #1 comdat align 2 {
entry:
  %__t.addr = alloca ptr, align 8
  store ptr %__t, ptr %__t.addr, align 8
  %0 = load ptr, ptr %__t.addr, align 8
  %call = call noundef nonnull align 8 dereferenceable(8) ptr @_ZNSt10_Head_baseILm0EPN3ue28NGHolderELb0EE7_M_headERKS3_(ptr noundef nonnull align 8 dereferenceable(8) %0) #2
  ret ptr %call
}

; Function Attrs: mustprogress nounwind uwtable
define linkonce_odr hidden noundef nonnull align 8 dereferenceable(8) ptr @_ZSt12__get_helperILm0EPN3ue28NGHolderEJSt14default_deleteIS1_EEERKT0_RKSt11_Tuple_implIXT_EJS5_DpT1_EE(ptr noundef nonnull align 8 dereferenceable(8) %__t) #1 comdat {
entry:
  %__t.addr = alloca ptr, align 8
  store ptr %__t, ptr %__t.addr, align 8
  %0 = load ptr, ptr %__t.addr, align 8
  %call = call noundef nonnull align 8 dereferenceable(8) ptr @_ZNSt11_Tuple_implILm0EJPN3ue28NGHolderESt14default_deleteIS1_EEE7_M_headERKS5_(ptr noundef nonnull align 8 dereferenceable(8) %0) #2
  ret ptr %call
}

; Function Attrs: mustprogress nounwind uwtable
define linkonce_odr hidden noundef nonnull align 8 dereferenceable(8) ptr @_ZSt3getILm0EJPN3ue28NGHolderESt14default_deleteIS1_EEERKNSt13tuple_elementIXT_ESt5tupleIJDpT0_EEE4typeERKS9_(ptr noundef nonnull align 8 dereferenceable(8) %__t) #1 comdat {
entry:
  %__t.addr = alloca ptr, align 8
  store ptr %__t, ptr %__t.addr, align 8
  %0 = load ptr, ptr %__t.addr, align 8
  %call = call noundef nonnull align 8 dereferenceable(8) ptr @_ZSt12__get_helperILm0EPN3ue28NGHolderEJSt14default_deleteIS1_EEERKT0_RKSt11_Tuple_implIXT_EJS5_DpT1_EE(ptr noundef nonnull align 8 dereferenceable(8) %0) #2
  ret ptr %call
}

; Function Attrs: mustprogress nounwind uwtable
define linkonce_odr hidden noundef ptr @_ZNKSt15__uniq_ptr_implIN3ue28NGHolderESt14default_deleteIS1_EE6_M_ptrEv(ptr noundef nonnull align 8 dereferenceable(8) %this) #1 comdat align 2 {
entry:
  %this.addr = alloca ptr, align 8
  store ptr %this, ptr %this.addr, align 8
  %this1 = load ptr, ptr %this.addr, align 8
  %_M_t = getelementptr inbounds %"class.std::__uniq_ptr_impl.87", ptr %this1, i32 0, i32 0
  %call = call noundef nonnull align 8 dereferenceable(8) ptr @_ZSt3getILm0EJPN3ue28NGHolderESt14default_deleteIS1_EEERKNSt13tuple_elementIXT_ESt5tupleIJDpT0_EEE4typeERKS9_(ptr noundef nonnull align 8 dereferenceable(8) %_M_t) #2
  %0 = load ptr, ptr %call, align 8
  ret ptr %0
}

; Function Attrs: mustprogress nounwind uwtable
define linkonce_odr hidden noundef ptr @_ZN3ue212graph_detail17vertex_descriptorINS_9ue2_graphINS_8NGHolderENS_19NFAGraphVertexPropsENS_17NFAGraphEdgePropsEEEE3rawEv(ptr noundef nonnull align 8 dereferenceable(16) %this) #1 comdat align 2 {
entry:
  %this.addr = alloca ptr, align 8
  store ptr %this, ptr %this.addr, align 8
  %this1 = load ptr, ptr %this.addr, align 8
  %p = getelementptr inbounds %"class.ue2::graph_detail::vertex_descriptor", ptr %this1, i32 0, i32 0
  %0 = load ptr, ptr %p, align 8
  ret ptr %0
}

; Function Attrs: mustprogress nounwind uwtable
define linkonce_odr hidden noundef ptr @_ZNKSt10unique_ptrIN3ue28NGHolderESt14default_deleteIS1_EE3getEv(ptr noundef nonnull align 8 dereferenceable(8) %this) #1 comdat align 2 {
entry:
  %this.addr = alloca ptr, align 8
  store ptr %this, ptr %this.addr, align 8
  %this1 = load ptr, ptr %this.addr, align 8
  %_M_t = getelementptr inbounds %"class.std::unique_ptr.85", ptr %this1, i32 0, i32 0
  %call = call noundef ptr @_ZNKSt15__uniq_ptr_implIN3ue28NGHolderESt14default_deleteIS1_EE6_M_ptrEv(ptr noundef nonnull align 8 dereferenceable(8) %_M_t) #2
  ret ptr %call
}

; Function Attrs: mustprogress nounwind uwtable
define linkonce_odr hidden noundef nonnull align 8 dereferenceable(16) ptr @_ZNKSt6vectorIN3ue212graph_detail17vertex_descriptorINS0_9ue2_graphINS0_8NGHolderENS0_19NFAGraphVertexPropsENS0_17NFAGraphEdgePropsEEEEESaIS8_EEixEm(ptr noundef nonnull align 8 dereferenceable(24) %this, i64 noundef %__n) #1 comdat align 2 {
entry:
  %this.addr = alloca ptr, align 8
  %__n.addr = alloca i64, align 8
  store ptr %this, ptr %this.addr, align 8
  store i64 %__n, ptr %__n.addr, align 8
  %this1 = load ptr, ptr %this.addr, align 8
  %_M_impl = getelementptr inbounds %"struct.std::_Vector_base.94", ptr %this1, i32 0, i32 0
  %_M_start = getelementptr inbounds %"struct.std::_Vector_base<ue2::graph_detail::vertex_descriptor<ue2::ue2_graph<ue2::NGHolder, ue2::NFAGraphVertexProps, ue2::NFAGraphEdgeProps>>, std::allocator<ue2::graph_detail::vertex_descriptor<ue2::ue2_graph<ue2::NGHolder, ue2::NFAGraphVertexProps, ue2::NFAGraphEdgeProps>>>>::_Vector_impl_data", ptr %_M_impl, i32 0, i32 0
  %0 = load ptr, ptr %_M_start, align 8
  %1 = load i64, ptr %__n.addr, align 8
  %add.ptr = getelementptr inbounds %"class.ue2::graph_detail::vertex_descriptor", ptr %0, i64 %1
  ret ptr %add.ptr
}

; Function Attrs: mustprogress uwtable
define linkonce_odr hidden noundef nonnull align 8 dereferenceable(76) ptr @_ZN3ue29ue2_graphINS_8NGHolderENS_19NFAGraphVertexPropsENS_17NFAGraphEdgePropsEEixENS_12graph_detail17vertex_descriptorIS4_EE(ptr noundef nonnull align 8 dereferenceable(56) %this, ptr %v.coerce0, i64 %v.coerce1) #3 comdat align 2 {
entry:
  %v = alloca %"class.ue2::graph_detail::vertex_descriptor", align 8
  %this.addr = alloca ptr, align 8
  %0 = getelementptr inbounds { ptr, i64 }, ptr %v, i32 0, i32 0
  store ptr %v.coerce0, ptr %0, align 8
  %1 = getelementptr inbounds { ptr, i64 }, ptr %v, i32 0, i32 1
  store i64 %v.coerce1, ptr %1, align 8
  store ptr %this, ptr %this.addr, align 8
  %call = call noundef ptr @_ZN3ue212graph_detail17vertex_descriptorINS_9ue2_graphINS_8NGHolderENS_19NFAGraphVertexPropsENS_17NFAGraphEdgePropsEEEE3rawEv(ptr noundef nonnull align 8 dereferenceable(16) %v)
  %props = getelementptr inbounds %"struct.ue2::ue2_graph<ue2::NGHolder, ue2::NFAGraphVertexProps, ue2::NFAGraphEdgeProps>::vertex_node", ptr %call, i32 0, i32 1
  ret ptr %props
}

; Function Attrs: mustprogress nounwind uwtable
define linkonce_odr hidden noundef nonnull align 8 dereferenceable(136) ptr @_ZNKSt10unique_ptrIN3ue28NGHolderESt14default_deleteIS1_EEdeEv(ptr noundef nonnull align 8 dereferenceable(8) %this) #1 comdat align 2 {
entry:
  %this.addr = alloca ptr, align 8
  store ptr %this, ptr %this.addr, align 8
  %this1 = load ptr, ptr %this.addr, align 8
  br label %do.body

do.body:                                          ; preds = %entry
  br label %do.cond

do.cond:                                          ; preds = %do.body
  br label %do.end

do.end:                                           ; preds = %do.cond
  %call = call noundef ptr @_ZNKSt10unique_ptrIN3ue28NGHolderESt14default_deleteIS1_EE3getEv(ptr noundef nonnull align 8 dereferenceable(8) %this1) #2
  ret ptr %call
}

; Function Attrs: mustprogress nounwind uwtable
define internal { ptr, i64 } @_ZNK3ue212_GLOBAL__N_114NFABuilderImpl9getVertexEj(ptr noundef nonnull align 8 dereferenceable(116) %this, i32 noundef %pos) #1 align 2 {
entry:
  %retval = alloca %"class.ue2::graph_detail::vertex_descriptor", align 8
  %this.addr = alloca ptr, align 8
  %pos.addr = alloca i32, align 4
  store ptr %this, ptr %this.addr, align 8
  store i32 %pos, ptr %pos.addr, align 4
  %this1 = load ptr, ptr %this.addr, align 8
  %id2vertex = getelementptr inbounds %"class.ue2::(anonymous namespace)::NFABuilderImpl", ptr %this1, i32 0, i32 5
  %0 = load i32, ptr %pos.addr, align 4
  %conv = zext i32 %0 to i64
  %call = call noundef nonnull align 8 dereferenceable(16) ptr @_ZNKSt6vectorIN3ue212graph_detail17vertex_descriptorINS0_9ue2_graphINS0_8NGHolderENS0_19NFAGraphVertexPropsENS0_17NFAGraphEdgePropsEEEEESaIS8_EEixEm(ptr noundef nonnull align 8 dereferenceable(24) %id2vertex, i64 noundef %conv) #2
  call void @llvm.memcpy.p0.p0.i64(ptr align 8 %retval, ptr align 8 %call, i64 16, i1 false)
  %1 = load { ptr, i64 }, ptr %retval, align 8
  ret { ptr, i64 } %1
}

; Function Attrs: mustprogress uwtable
define internal void @_ZN3ue212_GLOBAL__N_114NFABuilderImpl13setAssertFlagEjj(ptr noundef nonnull align 8 dereferenceable(116) %this, i32 noundef %pos, i32 noundef %flag) unnamed_addr #3 align 2 {
entry:
  %this.addr = alloca ptr, align 8
  %pos.addr = alloca i32, align 4
  %flag.addr = alloca i32, align 4
  %v = alloca %"class.ue2::graph_detail::vertex_descriptor", align 8
  %agg.tmp = alloca %"class.ue2::graph_detail::vertex_descriptor", align 8
  store ptr %this, ptr %this.addr, align 8
  store i32 %pos, ptr %pos.addr, align 4
  store i32 %flag, ptr %flag.addr, align 4
  %this1 = load ptr, ptr %this.addr, align 8
  %0 = load i32, ptr %pos.addr, align 4
  %call = call { ptr, i64 } @_ZNK3ue212_GLOBAL__N_114NFABuilderImpl9getVertexEj(ptr noundef nonnull align 8 dereferenceable(116) %this1, i32 noundef %0)
  %1 = getelementptr inbounds { ptr, i64 }, ptr %v, i32 0, i32 0
  %2 = extractvalue { ptr, i64 } %call, 0
  store ptr %2, ptr %1, align 8
  %3 = getelementptr inbounds { ptr, i64 }, ptr %v, i32 0, i32 1
  %4 = extractvalue { ptr, i64 } %call, 1
  store i64 %4, ptr %3, align 8
  %5 = load i32, ptr %flag.addr, align 4
  %graph = getelementptr inbounds %"class.ue2::(anonymous namespace)::NFABuilderImpl", ptr %this1, i32 0, i32 3
  %call2 = call noundef nonnull align 8 dereferenceable(136) ptr @_ZNKSt10unique_ptrIN3ue28NGHolderESt14default_deleteIS1_EEdeEv(ptr noundef nonnull align 8 dereferenceable(8) %graph) #2
  %add.ptr = getelementptr inbounds i8, ptr %call2, i64 8
  call void @llvm.memcpy.p0.p0.i64(ptr align 8 %agg.tmp, ptr align 8 %v, i64 16, i1 false)
  %6 = getelementptr inbounds { ptr, i64 }, ptr %agg.tmp, i32 0, i32 0
  %7 = load ptr, ptr %6, align 8
  %8 = getelementptr inbounds { ptr, i64 }, ptr %agg.tmp, i32 0, i32 1
  %9 = load i64, ptr %8, align 8
  %call3 = call noundef nonnull align 8 dereferenceable(76) ptr @_ZN3ue29ue2_graphINS_8NGHolderENS_19NFAGraphVertexPropsENS_17NFAGraphEdgePropsEEixENS_12graph_detail17vertex_descriptorIS4_EE(ptr noundef nonnull align 8 dereferenceable(56) %add.ptr, ptr %7, i64 %9)
  %assert_flags = getelementptr inbounds %"struct.ue2::NFAGraphVertexProps", ptr %call3, i32 0, i32 3
  %10 = load i32, ptr %assert_flags, align 8
  %or = or i32 %10, %5
  store i32 %or, ptr %assert_flags, align 8
  ret void
}